; Function Attrs: nounwind uwtable
define noalias nonnull ptr @l_Std_Format_prettyM___at_Lean_Widget_TaggedText_prettyTagged___spec__1(ptr noundef %0, ptr noundef %1, ptr noundef %2, ptr noundef %3) local_unnamed_addr #1 {
  %5 = ptrtoint ptr %2 to i64
  %6 = and i64 %5, 1
  %.not.i = icmp eq i64 %6, 0
  %7 = icmp ult ptr %2, inttoptr (i64 4294967296 to ptr)
  %or.cond.i = or i1 %7, %.not.i
  br i1 %or.cond.i, label %lean_nat_to_int.exit, label %8

8:                                                ; preds = %4
  %9 = lshr i64 %5, 1
  %10 = tail call ptr @lean_big_size_t_to_int(i64 noundef %9) #5
  br label %lean_nat_to_int.exit

lean_nat_to_int.exit:                             ; preds = %4, %8
  %.1.i = phi ptr [ %10, %8 ], [ %2, %4 ]
  tail call void @lean_inc_heartbeat() #5
  %11 = tail call noalias ptr @mi_malloc_small(i64 noundef 32) #5
  %12 = icmp eq ptr %11, null
  br i1 %12, label %13, label %lean_alloc_ctor.exit

13:                                               ; preds = %lean_nat_to_int.exit
  tail call void @lean_internal_panic_out_of_memory() #6
  unreachable

lean_alloc_ctor.exit:                             ; preds = %lean_nat_to_int.exit
  %14 = getelementptr inbounds nuw i8, ptr %11, i64 4
  store i32 1, ptr %11, align 4, !tbaa !9
  store i32 196640, ptr %14, align 4
  %15 = getelementptr inbounds nuw i8, ptr %11, i64 8
  store ptr %0, ptr %15, align 8, !tbaa !4
  %16 = getelementptr inbounds nuw i8, ptr %11, i64 16
  store ptr %.1.i, ptr %16, align 8, !tbaa !4
  %17 = getelementptr inbounds nuw i8, ptr %11, i64 24
  store ptr inttoptr (i64 1 to ptr), ptr %17, align 8, !tbaa !4
  tail call void @lean_inc_heartbeat() #5
  %18 = tail call noalias ptr @mi_malloc_small(i64 noundef 24) #5
  %19 = icmp eq ptr %18, null
  br i1 %19, label %20, label %lean_alloc_ctor.exit24

20:                                               ; preds = %lean_alloc_ctor.exit
  tail call void @lean_internal_panic_out_of_memory() #6
  unreachable

lean_alloc_ctor.exit24:                           ; preds = %lean_alloc_ctor.exit
  %21 = getelementptr inbounds nuw i8, ptr %18, i64 4
  store i32 1, ptr %18, align 4, !tbaa !9
  store i32 16908312, ptr %21, align 4
  %22 = getelementptr inbounds nuw i8, ptr %18, i64 8
  store ptr %11, ptr %22, align 8, !tbaa !4
  %23 = getelementptr inbounds nuw i8, ptr %18, i64 16
  store ptr inttoptr (i64 1 to ptr), ptr %23, align 8, !tbaa !4
  tail call void @lean_inc_heartbeat() #5
  %24 = tail call noalias ptr @mi_malloc_small(i64 noundef 24) #5
  %25 = icmp eq ptr %24, null
  br i1 %25, label %26, label %lean_alloc_ctor.exit25

26:                                               ; preds = %lean_alloc_ctor.exit24
  tail call void @lean_internal_panic_out_of_memory() #6
  unreachable

lean_alloc_ctor.exit25:                           ; preds = %lean_alloc_ctor.exit24
  %27 = getelementptr inbounds nuw i8, ptr %24, i64 4
  %28 = getelementptr inbounds nuw i8, ptr %24, i64 16
  store i64 0, ptr %28, align 8, !tbaa !13
  store i32 1, ptr %24, align 4, !tbaa !9
  store i32 65560, ptr %27, align 4
  %29 = getelementptr inbounds nuw i8, ptr %24, i64 8
  store ptr %18, ptr %29, align 8, !tbaa !4
  tail call void @lean_inc_heartbeat() #5
  %30 = tail call noalias ptr @mi_malloc_small(i64 noundef 24) #5
  %31 = icmp eq ptr %30, null
  br i1 %31, label %32, label %lean_alloc_ctor.exit26

32:                                               ; preds = %lean_alloc_ctor.exit25
  tail call void @lean_internal_panic_out_of_memory() #6
  unreachable

lean_alloc_ctor.exit26:                           ; preds = %lean_alloc_ctor.exit25
  %33 = getelementptr inbounds nuw i8, ptr %30, i64 4
  store i32 1, ptr %30, align 4, !tbaa !9
  store i32 16908312, ptr %33, align 4
  %34 = getelementptr inbounds nuw i8, ptr %30, i64 8
  store ptr %24, ptr %34, align 8, !tbaa !4
  %35 = getelementptr inbounds nuw i8, ptr %30, i64 16
  store ptr inttoptr (i64 1 to ptr), ptr %35, align 8, !tbaa !4
  %36 = tail call ptr @l___private_Init_Data_Format_Basic_0__Std_Format_be___at_Lean_Widget_TaggedText_prettyTagged___spec__2(ptr noundef %1, ptr noundef nonnull %30, ptr noundef %3)
  ret ptr %36
}